; Function Attrs: mustprogress uwtable
define dso_local void @_ZN15cmCTestGlobalVC14DoModificationEN9cmCTestVC10PathStatusERKNSt7__cxx1112basic_stringIcSt11char_traitsIcESaIcEEE(ptr noundef nonnull align 8 dereferenceable(784) %0, i32 noundef %1, ptr noundef nonnull align 8 dereferenceable(32) %2) unnamed_addr #3 align 2 personality ptr @__gxx_personality_v0 {
  %4 = alloca %"class.std::__cxx11::basic_string", align 8
  %5 = alloca %"class.std::__cxx11::basic_string", align 8
  call void @_ZN5cmsys11SystemTools15GetFilenamePathERKNSt7__cxx1112basic_stringIcSt11char_traitsIcESaIcEEE(ptr dead_on_unwind nonnull writable sret(%"class.std::__cxx11::basic_string") align 8 %4, ptr noundef nonnull align 8 dereferenceable(32) %2)
  invoke void @_ZN5cmsys11SystemTools15GetFilenameNameERKNSt7__cxx1112basic_stringIcSt11char_traitsIcESaIcEEE(ptr dead_on_unwind nonnull writable sret(%"class.std::__cxx11::basic_string") align 8 %5, ptr noundef nonnull align 8 dereferenceable(32) %2)
          to label %6 unwind label %19

6:                                                ; preds = %3
  %7 = getelementptr inbounds i8, ptr %0, i64 392
  %8 = invoke noundef nonnull align 8 dereferenceable(48) ptr @_ZNSt3mapINSt7__cxx1112basic_stringIcSt11char_traitsIcESaIcEEEN15cmCTestGlobalVC9DirectoryESt4lessIS5_ESaISt4pairIKS5_S7_EEEixERSB_(ptr noundef nonnull align 8 dereferenceable(48) %7, ptr noundef nonnull align 8 dereferenceable(32) %4)
          to label %9 unwind label %21

9:                                                ; preds = %6
  %10 = invoke noundef nonnull align 8 dereferenceable(24) ptr @_ZNSt3mapINSt7__cxx1112basic_stringIcSt11char_traitsIcESaIcEEEN9cmCTestVC4FileESt4lessIS5_ESaISt4pairIKS5_S7_EEEixERSB_(ptr noundef nonnull align 8 dereferenceable(48) %8, ptr noundef nonnull align 8 dereferenceable(32) %5)
          to label %11 unwind label %21

11:                                               ; preds = %9
  store i32 %1, ptr %10, align 8
  %12 = getelementptr inbounds i8, ptr %10, i64 8
  %13 = load ptr, ptr %12, align 8
  %.not = icmp eq ptr %13, null
  br i1 %.not, label %14, label %23

14:                                               ; preds = %11
  %15 = getelementptr inbounds i8, ptr %10, i64 16
  %16 = load ptr, ptr %15, align 8
  %.not11 = icmp eq ptr %16, null
  br i1 %.not11, label %17, label %23

17:                                               ; preds = %14
  %18 = getelementptr inbounds i8, ptr %0, i64 504
  store ptr %18, ptr %15, align 8
  br label %23

19:                                               ; preds = %3
  %20 = landingpad { ptr, i32 }
          cleanup
  br label %24

21:                                               ; preds = %9, %6
  %22 = landingpad { ptr, i32 }
          cleanup
  call void @_ZNSt7__cxx1112basic_stringIcSt11char_traitsIcESaIcEED1Ev(ptr noundef nonnull align 8 dereferenceable(32) %5) #17
  br label %24

23:                                               ; preds = %17, %14, %11
  call void @_ZNSt7__cxx1112basic_stringIcSt11char_traitsIcESaIcEED1Ev(ptr noundef nonnull align 8 dereferenceable(32) %5) #17
  call void @_ZNSt7__cxx1112basic_stringIcSt11char_traitsIcESaIcEED1Ev(ptr noundef nonnull align 8 dereferenceable(32) %4) #17
  ret void

24:                                               ; preds = %21, %19
  %.pn = phi { ptr, i32 } [ %22, %21 ], [ %20, %19 ]
  call void @_ZNSt7__cxx1112basic_stringIcSt11char_traitsIcESaIcEED1Ev(ptr noundef nonnull align 8 dereferenceable(32) %4) #17
  resume { ptr, i32 } %.pn
}